target datalayout = "e-m:e-p270:32:32-p271:32:32-p272:64:64-i64:64-i128:128-f80:128-n8:16:32:64-S128"
target triple = "x86_64-pc-linux-gnu"

%struct.AVFilterContext = type { ptr, ptr, ptr, ptr, ptr, i32, ptr, ptr, i32, ptr, ptr, i32, i32, ptr, ptr, ptr, ptr, i32, ptr, i32, i32 }
%struct.ColorCorrectContext = type { ptr, float, float, float, float, float, i32, i32, float, float, i32, i32, [4 x i32], [4 x i32], ptr, ptr, ptr, ptr, ptr }
%struct.AVChannelLayout = type { i32, i32, %union.anon.1, ptr }
%union.anon.1 = type { i64 }
%struct.AVRational = type { i32, i32 }
%struct.AVFrame = type { [8 x ptr], [8 x i32], ptr, i32, i32, i32, i32, i32, %struct.AVRational, i64, i64, %struct.AVRational, i32, ptr, i32, i32, [8 x ptr], ptr, i32, ptr, i32, i32, i32, i32, i32, i32, i32, i64, ptr, i32, ptr, ptr, i64, i64, i64, i64, ptr, %struct.AVChannelLayout, i64 }

; Function Attrs: nounwind uwtable
define internal i32 @minmax_slice8(ptr noundef %0, ptr noundef %1, i32 noundef %2, i32 noundef %3) #2 {
  %5 = alloca ptr, align 8
  %6 = alloca ptr, align 8
  %7 = alloca i32, align 4
  %8 = alloca i32, align 4
  %9 = alloca ptr, align 8
  %10 = alloca ptr, align 8
  %11 = alloca float, align 4
  %12 = alloca i32, align 4
  %13 = alloca i32, align 4
  %14 = alloca i32, align 4
  %15 = alloca i32, align 4
  %16 = alloca i64, align 8
  %17 = alloca i64, align 8
  %18 = alloca ptr, align 8
  %19 = alloca ptr, align 8
  %20 = alloca i32, align 4
  %21 = alloca i32, align 4
  %22 = alloca i32, align 4
  %23 = alloca i32, align 4
  %24 = alloca i32, align 4
  %25 = alloca i32, align 4
  %26 = alloca i32, align 4
  store ptr %0, ptr %5, align 8, !tbaa !4
  store ptr %1, ptr %6, align 8, !tbaa !71
  store i32 %2, ptr %7, align 4, !tbaa !41
  store i32 %3, ptr %8, align 4, !tbaa !41
  call void @llvm.lifetime.start.p0(i64 8, ptr %9) #9
  %27 = load ptr, ptr %5, align 8, !tbaa !4
  %28 = getelementptr inbounds nuw %struct.AVFilterContext, ptr %27, i32 0, i32 9
  %29 = load ptr, ptr %28, align 8, !tbaa !9
  store ptr %29, ptr %9, align 8, !tbaa !22
  call void @llvm.lifetime.start.p0(i64 8, ptr %10) #9
  %30 = load ptr, ptr %6, align 8, !tbaa !71
  store ptr %30, ptr %10, align 8, !tbaa !26
  call void @llvm.lifetime.start.p0(i64 4, ptr %11) #9
  %31 = load ptr, ptr %9, align 8, !tbaa !22
  %32 = getelementptr inbounds nuw %struct.ColorCorrectContext, ptr %31, i32 0, i32 9
  %33 = load float, ptr %32, align 8, !tbaa !60
  store float %33, ptr %11, align 4, !tbaa !42
  call void @llvm.lifetime.start.p0(i64 4, ptr %12) #9
  %34 = load ptr, ptr %9, align 8, !tbaa !22
  %35 = getelementptr inbounds nuw %struct.ColorCorrectContext, ptr %34, i32 0, i32 13
  %36 = getelementptr inbounds [4 x i32], ptr %35, i64 0, i64 1
  %37 = load i32, ptr %36, align 4, !tbaa !41
  store i32 %37, ptr %12, align 4, !tbaa !41
  call void @llvm.lifetime.start.p0(i64 4, ptr %13) #9
  %38 = load ptr, ptr %9, align 8, !tbaa !22
  %39 = getelementptr inbounds nuw %struct.ColorCorrectContext, ptr %38, i32 0, i32 12
  %40 = getelementptr inbounds [4 x i32], ptr %39, i64 0, i64 1
  %41 = load i32, ptr %40, align 4, !tbaa !41
  store i32 %41, ptr %13, align 4, !tbaa !41
  call void @llvm.lifetime.start.p0(i64 4, ptr %14) #9
  %42 = load i32, ptr %13, align 4, !tbaa !41
  %43 = load i32, ptr %7, align 4, !tbaa !41
  %44 = mul nsw i32 %42, %43
  %45 = load i32, ptr %8, align 4, !tbaa !41
  %46 = sdiv i32 %44, %45
  store i32 %46, ptr %14, align 4, !tbaa !41
  call void @llvm.lifetime.start.p0(i64 4, ptr %15) #9
  %47 = load i32, ptr %13, align 4, !tbaa !41
  %48 = load i32, ptr %7, align 4, !tbaa !41
  %49 = add nsw i32 %48, 1
  %50 = mul nsw i32 %47, %49
  %51 = load i32, ptr %8, align 4, !tbaa !41
  %52 = sdiv i32 %50, %51
  store i32 %52, ptr %15, align 4, !tbaa !41
  call void @llvm.lifetime.start.p0(i64 8, ptr %16) #9
  %53 = load ptr, ptr %10, align 8, !tbaa !26
  %54 = getelementptr inbounds nuw %struct.AVFrame, ptr %53, i32 0, i32 1
  %55 = getelementptr inbounds [8 x i32], ptr %54, i64 0, i64 1
  %56 = load i32, ptr %55, align 4, !tbaa !41
  %57 = sext i32 %56 to i64
  store i64 %57, ptr %16, align 8, !tbaa !72
  call void @llvm.lifetime.start.p0(i64 8, ptr %17) #9
  %58 = load ptr, ptr %10, align 8, !tbaa !26
  %59 = getelementptr inbounds nuw %struct.AVFrame, ptr %58, i32 0, i32 1
  %60 = getelementptr inbounds [8 x i32], ptr %59, i64 0, i64 2
  %61 = load i32, ptr %60, align 8, !tbaa !41
  %62 = sext i32 %61 to i64
  store i64 %62, ptr %17, align 8, !tbaa !72
  call void @llvm.lifetime.start.p0(i64 8, ptr %18) #9
  %63 = load ptr, ptr %10, align 8, !tbaa !26
  %64 = getelementptr inbounds nuw %struct.AVFrame, ptr %63, i32 0, i32 0
  %65 = getelementptr inbounds [8 x ptr], ptr %64, i64 0, i64 1
  %66 = load ptr, ptr %65, align 8, !tbaa !73
  %67 = load i32, ptr %14, align 4, !tbaa !41
  %68 = sext i32 %67 to i64
  %69 = load i64, ptr %16, align 8, !tbaa !72
  %70 = mul nsw i64 %68, %69
  %71 = getelementptr inbounds i8, ptr %66, i64 %70
  store ptr %71, ptr %18, align 8, !tbaa !73
  call void @llvm.lifetime.start.p0(i64 8, ptr %19) #9
  %72 = load ptr, ptr %10, align 8, !tbaa !26
  %73 = getelementptr inbounds nuw %struct.AVFrame, ptr %72, i32 0, i32 0
  %74 = getelementptr inbounds [8 x ptr], ptr %73, i64 0, i64 2
  %75 = load ptr, ptr %74, align 8, !tbaa !73
  %76 = load i32, ptr %14, align 4, !tbaa !41
  %77 = sext i32 %76 to i64
  %78 = load i64, ptr %17, align 8, !tbaa !72
  %79 = mul nsw i64 %77, %78
  %80 = getelementptr inbounds i8, ptr %75, i64 %79
  store ptr %80, ptr %19, align 8, !tbaa !73
  call void @llvm.lifetime.start.p0(i64 4, ptr %20) #9
  store i32 255, ptr %20, align 4, !tbaa !41
  call void @llvm.lifetime.start.p0(i64 4, ptr %21) #9
  store i32 255, ptr %21, align 4, !tbaa !41
  call void @llvm.lifetime.start.p0(i64 4, ptr %22) #9
  store i32 0, ptr %22, align 4, !tbaa !41
  call void @llvm.lifetime.start.p0(i64 4, ptr %23) #9
  store i32 0, ptr %23, align 4, !tbaa !41
  call void @llvm.lifetime.start.p0(i64 4, ptr %24) #9
  %81 = load i32, ptr %14, align 4, !tbaa !41
  store i32 %81, ptr %24, align 4, !tbaa !41
  br label %82

82:                                               ; preds = %180, %4
  %83 = load i32, ptr %24, align 4, !tbaa !41
  %84 = load i32, ptr %15, align 4, !tbaa !41
  %85 = icmp slt i32 %83, %84
  br i1 %85, label %87, label %86

86:                                               ; preds = %82
  store i32 2, ptr %25, align 4
  call void @llvm.lifetime.end.p0(i64 4, ptr %24) #9
  br label %183

87:                                               ; preds = %82
  call void @llvm.lifetime.start.p0(i64 4, ptr %26) #9
  store i32 0, ptr %26, align 4, !tbaa !41
  br label %88

88:                                               ; preds = %170, %87
  %89 = load i32, ptr %26, align 4, !tbaa !41
  %90 = load i32, ptr %12, align 4, !tbaa !41
  %91 = icmp slt i32 %89, %90
  br i1 %91, label %93, label %92

92:                                               ; preds = %88
  store i32 5, ptr %25, align 4
  call void @llvm.lifetime.end.p0(i64 4, ptr %26) #9
  br label %173

93:                                               ; preds = %88
  %94 = load i32, ptr %20, align 4, !tbaa !41
  %95 = load ptr, ptr %18, align 8, !tbaa !73
  %96 = load i32, ptr %26, align 4, !tbaa !41
  %97 = sext i32 %96 to i64
  %98 = getelementptr inbounds i8, ptr %95, i64 %97
  %99 = load i8, ptr %98, align 1, !tbaa !75
  %100 = zext i8 %99 to i32
  %101 = icmp sgt i32 %94, %100
  br i1 %101, label %102, label %109

102:                                              ; preds = %93
  %103 = load ptr, ptr %18, align 8, !tbaa !73
  %104 = load i32, ptr %26, align 4, !tbaa !41
  %105 = sext i32 %104 to i64
  %106 = getelementptr inbounds i8, ptr %103, i64 %105
  %107 = load i8, ptr %106, align 1, !tbaa !75
  %108 = zext i8 %107 to i32
  br label %111

109:                                              ; preds = %93
  %110 = load i32, ptr %20, align 4, !tbaa !41
  br label %111

111:                                              ; preds = %109, %102
  %112 = phi i32 [ %108, %102 ], [ %110, %109 ]
  store i32 %112, ptr %20, align 4, !tbaa !41
  %113 = load i32, ptr %21, align 4, !tbaa !41
  %114 = load ptr, ptr %19, align 8, !tbaa !73
  %115 = load i32, ptr %26, align 4, !tbaa !41
  %116 = sext i32 %115 to i64
  %117 = getelementptr inbounds i8, ptr %114, i64 %116
  %118 = load i8, ptr %117, align 1, !tbaa !75
  %119 = zext i8 %118 to i32
  %120 = icmp sgt i32 %113, %119
  br i1 %120, label %121, label %128

121:                                              ; preds = %111
  %122 = load ptr, ptr %19, align 8, !tbaa !73
  %123 = load i32, ptr %26, align 4, !tbaa !41
  %124 = sext i32 %123 to i64
  %125 = getelementptr inbounds i8, ptr %122, i64 %124
  %126 = load i8, ptr %125, align 1, !tbaa !75
  %127 = zext i8 %126 to i32
  br label %130

128:                                              ; preds = %111
  %129 = load i32, ptr %21, align 4, !tbaa !41
  br label %130

130:                                              ; preds = %128, %121
  %131 = phi i32 [ %127, %121 ], [ %129, %128 ]
  store i32 %131, ptr %21, align 4, !tbaa !41
  %132 = load i32, ptr %22, align 4, !tbaa !41
  %133 = load ptr, ptr %18, align 8, !tbaa !73
  %134 = load i32, ptr %26, align 4, !tbaa !41
  %135 = sext i32 %134 to i64
  %136 = getelementptr inbounds i8, ptr %133, i64 %135
  %137 = load i8, ptr %136, align 1, !tbaa !75
  %138 = zext i8 %137 to i32
  %139 = icmp sgt i32 %132, %138
  br i1 %139, label %140, label %142

140:                                              ; preds = %130
  %141 = load i32, ptr %22, align 4, !tbaa !41
  br label %149

142:                                              ; preds = %130
  %143 = load ptr, ptr %18, align 8, !tbaa !73
  %144 = load i32, ptr %26, align 4, !tbaa !41
  %145 = sext i32 %144 to i64
  %146 = getelementptr inbounds i8, ptr %143, i64 %145
  %147 = load i8, ptr %146, align 1, !tbaa !75
  %148 = zext i8 %147 to i32
  br label %149

149:                                              ; preds = %142, %140
  %150 = phi i32 [ %141, %140 ], [ %148, %142 ]
  store i32 %150, ptr %22, align 4, !tbaa !41
  %151 = load i32, ptr %23, align 4, !tbaa !41
  %152 = load ptr, ptr %19, align 8, !tbaa !73
  %153 = load i32, ptr %26, align 4, !tbaa !41
  %154 = sext i32 %153 to i64
  %155 = getelementptr inbounds i8, ptr %152, i64 %154
  %156 = load i8, ptr %155, align 1, !tbaa !75
  %157 = zext i8 %156 to i32
  %158 = icmp sgt i32 %151, %157
  br i1 %158, label %159, label %161

159:                                              ; preds = %149
  %160 = load i32, ptr %23, align 4, !tbaa !41
  br label %168

161:                                              ; preds = %149
  %162 = load ptr, ptr %19, align 8, !tbaa !73
  %163 = load i32, ptr %26, align 4, !tbaa !41
  %164 = sext i32 %163 to i64
  %165 = getelementptr inbounds i8, ptr %162, i64 %164
  %166 = load i8, ptr %165, align 1, !tbaa !75
  %167 = zext i8 %166 to i32
  br label %168

168:                                              ; preds = %161, %159
  %169 = phi i32 [ %160, %159 ], [ %167, %161 ]
  store i32 %169, ptr %23, align 4, !tbaa !41
  br label %170

170:                                              ; preds = %168
  %171 = load i32, ptr %26, align 4, !tbaa !41
  %172 = add nsw i32 %171, 1
  store i32 %172, ptr %26, align 4, !tbaa !41
  br label %88, !llvm.loop !88

173:                                              ; preds = %92
  %174 = load i64, ptr %16, align 8, !tbaa !72
  %175 = load ptr, ptr %18, align 8, !tbaa !73
  %176 = getelementptr inbounds i8, ptr %175, i64 %174
  store ptr %176, ptr %18, align 8, !tbaa !73
  %177 = load i64, ptr %17, align 8, !tbaa !72
  %178 = load ptr, ptr %19, align 8, !tbaa !73
  %179 = getelementptr inbounds i8, ptr %178, i64 %177
  store ptr %179, ptr %19, align 8, !tbaa !73
  br label %180

180:                                              ; preds = %173
  %181 = load i32, ptr %24, align 4, !tbaa !41
  %182 = add nsw i32 %181, 1
  store i32 %182, ptr %24, align 4, !tbaa !41
  br label %82, !llvm.loop !89

183:                                              ; preds = %86
  %184 = load float, ptr %11, align 4, !tbaa !42
  %185 = load i32, ptr %20, align 4, !tbaa !41
  %186 = sitofp i32 %185 to float
  %187 = call nsz float @llvm.fmuladd.f32(float %184, float %186, float -5.000000e-01)
  %188 = load ptr, ptr %9, align 8, !tbaa !22
  %189 = getelementptr inbounds nuw %struct.ColorCorrectContext, ptr %188, i32 0, i32 16
  %190 = load ptr, ptr %189, align 8, !tbaa !44
  %191 = load i32, ptr %7, align 4, !tbaa !41
  %192 = sext i32 %191 to i64
  %193 = getelementptr inbounds [4 x float], ptr %190, i64 %192
  %194 = getelementptr inbounds [4 x float], ptr %193, i64 0, i64 0
  store float %187, ptr %194, align 4, !tbaa !42
  %195 = load float, ptr %11, align 4, !tbaa !42
  %196 = load i32, ptr %21, align 4, !tbaa !41
  %197 = sitofp i32 %196 to float
  %198 = call nsz float @llvm.fmuladd.f32(float %195, float %197, float -5.000000e-01)
  %199 = load ptr, ptr %9, align 8, !tbaa !22
  %200 = getelementptr inbounds nuw %struct.ColorCorrectContext, ptr %199, i32 0, i32 16
  %201 = load ptr, ptr %200, align 8, !tbaa !44
  %202 = load i32, ptr %7, align 4, !tbaa !41
  %203 = sext i32 %202 to i64
  %204 = getelementptr inbounds [4 x float], ptr %201, i64 %203
  %205 = getelementptr inbounds [4 x float], ptr %204, i64 0, i64 1
  store float %198, ptr %205, align 4, !tbaa !42
  %206 = load float, ptr %11, align 4, !tbaa !42
  %207 = load i32, ptr %22, align 4, !tbaa !41
  %208 = sitofp i32 %207 to float
  %209 = call nsz float @llvm.fmuladd.f32(float %206, float %208, float -5.000000e-01)
  %210 = load ptr, ptr %9, align 8, !tbaa !22
  %211 = getelementptr inbounds nuw %struct.ColorCorrectContext, ptr %210, i32 0, i32 16
  %212 = load ptr, ptr %211, align 8, !tbaa !44
  %213 = load i32, ptr %7, align 4, !tbaa !41
  %214 = sext i32 %213 to i64
  %215 = getelementptr inbounds [4 x float], ptr %212, i64 %214
  %216 = getelementptr inbounds [4 x float], ptr %215, i64 0, i64 2
  store float %209, ptr %216, align 4, !tbaa !42
  %217 = load float, ptr %11, align 4, !tbaa !42
  %218 = load i32, ptr %23, align 4, !tbaa !41
  %219 = sitofp i32 %218 to float
  %220 = call nsz float @llvm.fmuladd.f32(float %217, float %219, float -5.000000e-01)
  %221 = load ptr, ptr %9, align 8, !tbaa !22
  %222 = getelementptr inbounds nuw %struct.ColorCorrectContext, ptr %221, i32 0, i32 16
  %223 = load ptr, ptr %222, align 8, !tbaa !44
  %224 = load i32, ptr %7, align 4, !tbaa !41
  %225 = sext i32 %224 to i64
  %226 = getelementptr inbounds [4 x float], ptr %223, i64 %225
  %227 = getelementptr inbounds [4 x float], ptr %226, i64 0, i64 3
  store float %220, ptr %227, align 4, !tbaa !42
  store i32 1, ptr %25, align 4
  call void @llvm.lifetime.end.p0(i64 4, ptr %23) #9
  call void @llvm.lifetime.end.p0(i64 4, ptr %22) #9
  call void @llvm.lifetime.end.p0(i64 4, ptr %21) #9
  call void @llvm.lifetime.end.p0(i64 4, ptr %20) #9
  call void @llvm.lifetime.end.p0(i64 8, ptr %19) #9
  call void @llvm.lifetime.end.p0(i64 8, ptr %18) #9
  call void @llvm.lifetime.end.p0(i64 8, ptr %17) #9
  call void @llvm.lifetime.end.p0(i64 8, ptr %16) #9
  call void @llvm.lifetime.end.p0(i64 4, ptr %15) #9
  call void @llvm.lifetime.end.p0(i64 4, ptr %14) #9
  call void @llvm.lifetime.end.p0(i64 4, ptr %13) #9
  call void @llvm.lifetime.end.p0(i64 4, ptr %12) #9
  call void @llvm.lifetime.end.p0(i64 4, ptr %11) #9
  call void @llvm.lifetime.end.p0(i64 8, ptr %10) #9
  call void @llvm.lifetime.end.p0(i64 8, ptr %9) #9
  ret i32 0
}