; Function Attrs: nofree norecurse nosync nounwind memory(readwrite, inaccessiblemem: none) uwtable
define internal noundef i32 @minmax_slice8(ptr noundef readonly captures(none) %0, ptr noundef readonly captures(none) %1, i32 noundef %2, i32 noundef %3) #4 {
  %5 = getelementptr inbounds nuw i8, ptr %0, i64 72
  %6 = load ptr, ptr %5, align 8, !tbaa !4
  %7 = getelementptr inbounds nuw i8, ptr %6, i64 40
  %8 = load float, ptr %7, align 8, !tbaa !53
  %9 = getelementptr inbounds nuw i8, ptr %6, i64 72
  %10 = load i32, ptr %9, align 4, !tbaa !35
  %11 = getelementptr inbounds nuw i8, ptr %6, i64 56
  %12 = load i32, ptr %11, align 4, !tbaa !35
  %13 = mul nsw i32 %12, %2
  %14 = sdiv i32 %13, %3
  %15 = add nsw i32 %2, 1
  %16 = mul nsw i32 %12, %15
  %17 = sdiv i32 %16, %3
  %18 = getelementptr inbounds nuw i8, ptr %1, i64 68
  %19 = load i32, ptr %18, align 4, !tbaa !35
  %20 = sext i32 %19 to i64
  %21 = getelementptr inbounds nuw i8, ptr %1, i64 72
  %22 = load i32, ptr %21, align 8, !tbaa !35
  %23 = sext i32 %22 to i64
  %24 = icmp slt i32 %14, %17
  %25 = icmp sgt i32 %10, 0
  %or.cond = select i1 %24, i1 %25, i1 false
  br i1 %or.cond, label %.preheader.us.preheader, label %._crit_edge98

.preheader.us.preheader:                          ; preds = %4
  %26 = getelementptr inbounds nuw i8, ptr %1, i64 8
  %27 = load ptr, ptr %26, align 8, !tbaa !65
  %28 = sext i32 %14 to i64
  %29 = mul nsw i64 %20, %28
  %30 = getelementptr inbounds i8, ptr %27, i64 %29
  %31 = getelementptr inbounds nuw i8, ptr %1, i64 16
  %32 = load ptr, ptr %31, align 8, !tbaa !65
  %33 = mul nsw i64 %23, %28
  %34 = getelementptr inbounds i8, ptr %32, i64 %33
  %wide.trip.count = zext nneg i32 %10 to i64
  br label %.preheader.us

.preheader.us:                                    ; preds = %.preheader.us.preheader, %._crit_edge.us
  %.06997.us = phi i32 [ %47, %._crit_edge.us ], [ %14, %.preheader.us.preheader ]
  %.07096.us = phi i32 [ %44, %._crit_edge.us ], [ 0, %.preheader.us.preheader ]
  %.07195.us = phi i32 [ %43, %._crit_edge.us ], [ 0, %.preheader.us.preheader ]
  %.07394.us = phi i32 [ %42, %._crit_edge.us ], [ 255, %.preheader.us.preheader ]
  %.07593.us = phi i32 [ %..176.us, %._crit_edge.us ], [ 255, %.preheader.us.preheader ]
  %.07792.us = phi ptr [ %46, %._crit_edge.us ], [ %34, %.preheader.us.preheader ]
  %.07891.us = phi ptr [ %45, %._crit_edge.us ], [ %30, %.preheader.us.preheader ]
  br label %35

35:                                               ; preds = %.preheader.us, %35
  %indvars.iv = phi i64 [ 0, %.preheader.us ], [ %indvars.iv.next, %35 ]
  %.186.us = phi i32 [ %.07096.us, %.preheader.us ], [ %44, %35 ]
  %.17285.us = phi i32 [ %.07195.us, %.preheader.us ], [ %43, %35 ]
  %.17484.us = phi i32 [ %.07394.us, %.preheader.us ], [ %42, %35 ]
  %.17683.us = phi i32 [ %.07593.us, %.preheader.us ], [ %..176.us, %35 ]
  %36 = getelementptr inbounds nuw i8, ptr %.07891.us, i64 %indvars.iv
  %37 = load i8, ptr %36, align 1, !tbaa !66
  %38 = zext i8 %37 to i32
  %..176.us = tail call i32 @llvm.umin.i32(i32 %.17683.us, i32 %38)
  %39 = getelementptr inbounds nuw i8, ptr %.07792.us, i64 %indvars.iv
  %40 = load i8, ptr %39, align 1, !tbaa !66
  %41 = zext i8 %40 to i32
  %42 = tail call i32 @llvm.umin.i32(i32 %.17484.us, i32 %41)
  %43 = tail call i32 @llvm.umax.i32(i32 %.17285.us, i32 %38)
  %44 = tail call i32 @llvm.umax.i32(i32 %.186.us, i32 %41)
  %indvars.iv.next = add nuw nsw i64 %indvars.iv, 1
  %exitcond.not = icmp eq i64 %indvars.iv.next, %wide.trip.count
  br i1 %exitcond.not, label %._crit_edge.us, label %35, !llvm.loop !77

._crit_edge.us:                                   ; preds = %35
  %45 = getelementptr inbounds i8, ptr %.07891.us, i64 %20
  %46 = getelementptr inbounds i8, ptr %.07792.us, i64 %23
  %47 = add nsw i32 %.06997.us, 1
  %exitcond110.not = icmp eq i32 %47, %17
  br i1 %exitcond110.not, label %._crit_edge98.loopexit, label %.preheader.us, !llvm.loop !78

._crit_edge98.loopexit:                           ; preds = %._crit_edge.us
  %48 = uitofp nneg i32 %..176.us to float
  %49 = uitofp nneg i32 %42 to float
  %50 = uitofp nneg i32 %43 to float
  %51 = uitofp nneg i32 %44 to float
  br label %._crit_edge98

._crit_edge98:                                    ; preds = %._crit_edge98.loopexit, %4
  %.075.lcssa = phi float [ 2.550000e+02, %4 ], [ %48, %._crit_edge98.loopexit ]
  %.073.lcssa = phi float [ 2.550000e+02, %4 ], [ %49, %._crit_edge98.loopexit ]
  %.071.lcssa = phi float [ 0.000000e+00, %4 ], [ %50, %._crit_edge98.loopexit ]
  %.070.lcssa = phi float [ 0.000000e+00, %4 ], [ %51, %._crit_edge98.loopexit ]
  %52 = tail call nsz float @llvm.fmuladd.f32(float %8, float %.075.lcssa, float -5.000000e-01)
  %53 = getelementptr inbounds nuw i8, ptr %6, i64 104
  %54 = load ptr, ptr %53, align 8, !tbaa !36
  %55 = sext i32 %2 to i64
  %56 = getelementptr inbounds [4 x float], ptr %54, i64 %55
  store float %52, ptr %56, align 4, !tbaa !41
  %57 = tail call nsz float @llvm.fmuladd.f32(float %8, float %.073.lcssa, float -5.000000e-01)
  %58 = getelementptr inbounds [4 x float], ptr %54, i64 %55, i64 1
  store float %57, ptr %58, align 4, !tbaa !41
  %59 = tail call nsz float @llvm.fmuladd.f32(float %8, float %.071.lcssa, float -5.000000e-01)
  %60 = getelementptr inbounds [4 x float], ptr %54, i64 %55, i64 2
  store float %59, ptr %60, align 4, !tbaa !41
  %61 = tail call nsz float @llvm.fmuladd.f32(float %8, float %.070.lcssa, float -5.000000e-01)
  %62 = getelementptr inbounds [4 x float], ptr %54, i64 %55, i64 3
  store float %61, ptr %62, align 4, !tbaa !41
  ret i32 0
}